(lp0
(dp1
S'search_terms'
p2
(dp3
S'fullname'
p4
S'GARR ANDR'
p5
sS'inmatesfnumber'
p6
S''
p7
ssS'user'
p8
S'arlinjv@att.net'
p9
sa(dp10
g2
(dp11
g4
g7
sg6
S'679810'
p12
ssg8
g9
sa(dp13
g2
(dp14
g4
S'schmoe joe'
p15
sg6
g7
ssg8
g9
sa.